target datalayout = "e-m:e-p270:32:32-p271:32:32-p272:64:64-i64:64-i128:128-f80:128-n8:16:32:64-S128"
target triple = "x86_64-pc-linux-gnu"

%"class.gmx::BasicVector" = type { [3 x i32] }
%struct.gmx_domdec_t = type { i32, ptr, %"class.gmx::BasicVector", i32, %"class.gmx::BasicVector", i32, i32, i8, ptr, i32, [8 x ptr], %struct.UnitCellInfo, %"class.gmx::BasicVector", i32, %"class.gmx::BasicVector", [3 x [2 x i32]], %"class.gmx::DomdecZones", %"class.std::unique_ptr", %"class.std::unique_ptr.7", i8, %"class.std::unique_ptr.15", %"class.std::unique_ptr.23", %"class.std::vector", %"class.std::unique_ptr.31", %"class.std::unique_ptr.23", i32, %"class.std::vector.39", %"class.std::unique_ptr.41", %"class.std::unique_ptr.49", %"class.gmx::BasicVector", %"class.std::unique_ptr.57", i64, ptr, %"class.std::unique_ptr.65", %"class.std::vector.73", [3 x %"class.std::vector.75"] }
%struct.UnitCellInfo = type <{ i32, i32, i8, i8, [2 x i8] }>
%"class.gmx::DomdecZones" = type { i32, i32, %"struct.std::array", %"struct.std::array.0", %"struct.std::array.1", %"struct.std::array.2", %"struct.std::array.3", i32 }
%"struct.std::array" = type { [4 x %"class.gmx::Range"] }
%"class.gmx::Range" = type { i32, i32 }
%"struct.std::array.0" = type { [8 x %"class.gmx::BasicVector"] }
%"struct.std::array.1" = type { [9 x i32] }
%"struct.std::array.2" = type { [8 x i32] }
%"struct.std::array.3" = type { [8 x %"struct.gmx::gmx_domdec_zone_size_t"] }
%"struct.gmx::gmx_domdec_zone_size_t" = type { %"class.gmx::BasicVector.4", %"class.gmx::BasicVector.4", %"class.gmx::BasicVector.4", %"class.gmx::BasicVector.4" }
%"class.gmx::BasicVector.4" = type { [3 x float] }
%"class.std::unique_ptr" = type { %"struct.std::__uniq_ptr_data" }
%"struct.std::__uniq_ptr_data" = type { %"class.std::__uniq_ptr_impl" }
%"class.std::__uniq_ptr_impl" = type { %"class.std::tuple" }
%"class.std::tuple" = type { %"struct.std::_Tuple_impl" }
%"struct.std::_Tuple_impl" = type { %"struct.std::_Head_base.6" }
%"struct.std::_Head_base.6" = type { ptr }
%"class.std::unique_ptr.7" = type { %"struct.std::__uniq_ptr_data.8" }
%"struct.std::__uniq_ptr_data.8" = type { %"class.std::__uniq_ptr_impl.9" }
%"class.std::__uniq_ptr_impl.9" = type { %"class.std::tuple.10" }
%"class.std::tuple.10" = type { %"struct.std::_Tuple_impl.11" }
%"struct.std::_Tuple_impl.11" = type { %"struct.std::_Head_base.14" }
%"struct.std::_Head_base.14" = type { ptr }
%"class.std::unique_ptr.15" = type { %"struct.std::__uniq_ptr_data.16" }
%"struct.std::__uniq_ptr_data.16" = type { %"class.std::__uniq_ptr_impl.17" }
%"class.std::__uniq_ptr_impl.17" = type { %"class.std::tuple.18" }
%"class.std::tuple.18" = type { %"struct.std::_Tuple_impl.19" }
%"struct.std::_Tuple_impl.19" = type { %"struct.std::_Head_base.22" }
%"struct.std::_Head_base.22" = type { ptr }
%"class.std::vector" = type { %"struct.std::_Vector_base" }
%"struct.std::_Vector_base" = type { %"struct.std::_Vector_base<int, std::allocator<int>>::_Vector_impl" }
%"struct.std::_Vector_base<int, std::allocator<int>>::_Vector_impl" = type { %"struct.std::_Vector_base<int, std::allocator<int>>::_Vector_impl_data" }
%"struct.std::_Vector_base<int, std::allocator<int>>::_Vector_impl_data" = type { ptr, ptr, ptr }
%"class.std::unique_ptr.31" = type { %"struct.std::__uniq_ptr_data.32" }
%"struct.std::__uniq_ptr_data.32" = type { %"class.std::__uniq_ptr_impl.33" }
%"class.std::__uniq_ptr_impl.33" = type { %"class.std::tuple.34" }
%"class.std::tuple.34" = type { %"struct.std::_Tuple_impl.35" }
%"struct.std::_Tuple_impl.35" = type { %"struct.std::_Head_base.38" }
%"struct.std::_Head_base.38" = type { ptr }
%"class.std::unique_ptr.23" = type { %"struct.std::__uniq_ptr_data.24" }
%"struct.std::__uniq_ptr_data.24" = type { %"class.std::__uniq_ptr_impl.25" }
%"class.std::__uniq_ptr_impl.25" = type { %"class.std::tuple.26" }
%"class.std::tuple.26" = type { %"struct.std::_Tuple_impl.27" }
%"struct.std::_Tuple_impl.27" = type { %"struct.std::_Head_base.30" }
%"struct.std::_Head_base.30" = type { ptr }
%"class.std::vector.39" = type { %"struct.std::_Vector_base.40" }
%"struct.std::_Vector_base.40" = type { %"struct.std::_Vector_base<int, gmx::DefaultInitializationAllocator<int>>::_Vector_impl" }
%"struct.std::_Vector_base<int, gmx::DefaultInitializationAllocator<int>>::_Vector_impl" = type { %"struct.std::_Vector_base<int, gmx::DefaultInitializationAllocator<int>>::_Vector_impl_data" }
%"struct.std::_Vector_base<int, gmx::DefaultInitializationAllocator<int>>::_Vector_impl_data" = type { ptr, ptr, ptr }
%"class.std::unique_ptr.41" = type { %"struct.std::__uniq_ptr_data.42" }
%"struct.std::__uniq_ptr_data.42" = type { %"class.std::__uniq_ptr_impl.43" }
%"class.std::__uniq_ptr_impl.43" = type { %"class.std::tuple.44" }
%"class.std::tuple.44" = type { %"struct.std::_Tuple_impl.45" }
%"struct.std::_Tuple_impl.45" = type { %"struct.std::_Head_base.48" }
%"struct.std::_Head_base.48" = type { ptr }
%"class.std::unique_ptr.49" = type { %"struct.std::__uniq_ptr_data.50" }
%"struct.std::__uniq_ptr_data.50" = type { %"class.std::__uniq_ptr_impl.51" }
%"class.std::__uniq_ptr_impl.51" = type { %"class.std::tuple.52" }
%"class.std::tuple.52" = type { %"struct.std::_Tuple_impl.53" }
%"struct.std::_Tuple_impl.53" = type { %"struct.std::_Head_base.56" }
%"struct.std::_Head_base.56" = type { ptr }
%"class.std::unique_ptr.57" = type { %"struct.std::__uniq_ptr_data.58" }
%"struct.std::__uniq_ptr_data.58" = type { %"class.std::__uniq_ptr_impl.59" }
%"class.std::__uniq_ptr_impl.59" = type { %"class.std::tuple.60" }
%"class.std::tuple.60" = type { %"struct.std::_Tuple_impl.61" }
%"struct.std::_Tuple_impl.61" = type { %"struct.std::_Head_base.64" }
%"struct.std::_Head_base.64" = type { ptr }
%"class.std::unique_ptr.65" = type { %"struct.std::__uniq_ptr_data.66" }
%"struct.std::__uniq_ptr_data.66" = type { %"class.std::__uniq_ptr_impl.67" }
%"class.std::__uniq_ptr_impl.67" = type { %"class.std::tuple.68" }
%"class.std::tuple.68" = type { %"struct.std::_Tuple_impl.69" }
%"struct.std::_Tuple_impl.69" = type { %"struct.std::_Head_base.72" }
%"struct.std::_Head_base.72" = type { ptr }
%"class.std::vector.73" = type { %"struct.std::_Vector_base.74" }
%"struct.std::_Vector_base.74" = type { %"struct.std::_Vector_base<gmx::BasicVector<float>, gmx::Allocator<gmx::BasicVector<float>, gmx::HostAllocationPolicy>>::_Vector_impl" }
%"struct.std::_Vector_base<gmx::BasicVector<float>, gmx::Allocator<gmx::BasicVector<float>, gmx::HostAllocationPolicy>>::_Vector_impl" = type { %"class.gmx::Allocator.base", %"struct.std::_Vector_base<gmx::BasicVector<float>, gmx::Allocator<gmx::BasicVector<float>, gmx::HostAllocationPolicy>>::_Vector_impl_data" }
%"class.gmx::Allocator.base" = type { %"class.gmx::HostAllocationPolicy.base" }
%"class.gmx::HostAllocationPolicy.base" = type <{ i32, i8 }>
%"struct.std::_Vector_base<gmx::BasicVector<float>, gmx::Allocator<gmx::BasicVector<float>, gmx::HostAllocationPolicy>>::_Vector_impl_data" = type { ptr, ptr, ptr }
%"class.std::vector.75" = type { %"struct.std::_Vector_base.76" }
%"struct.std::_Vector_base.76" = type { %"struct.std::_Vector_base<std::unique_ptr<gmx::GpuHaloExchange>, std::allocator<std::unique_ptr<gmx::GpuHaloExchange>>>::_Vector_impl" }
%"struct.std::_Vector_base<std::unique_ptr<gmx::GpuHaloExchange>, std::allocator<std::unique_ptr<gmx::GpuHaloExchange>>>::_Vector_impl" = type { %"struct.std::_Vector_base<std::unique_ptr<gmx::GpuHaloExchange>, std::allocator<std::unique_ptr<gmx::GpuHaloExchange>>>::_Vector_impl_data" }
%"struct.std::_Vector_base<std::unique_ptr<gmx::GpuHaloExchange>, std::allocator<std::unique_ptr<gmx::GpuHaloExchange>>>::_Vector_impl_data" = type { ptr, ptr, ptr }
%"class.std::vector.80" = type { %"struct.std::_Vector_base.81" }
%"struct.std::_Vector_base.81" = type { %"struct.std::_Vector_base<float, std::allocator<float>>::_Vector_impl" }
%"struct.std::_Vector_base<float, std::allocator<float>>::_Vector_impl" = type { %"struct.std::_Vector_base<float, std::allocator<float>>::_Vector_impl_data" }
%"struct.std::_Vector_base<float, std::allocator<float>>::_Vector_impl_data" = type { ptr, ptr, ptr }
%"struct.std::array.160" = type { [5 x i32] }
%class.t_state = type { i32, i32, i32, i32, i32, i32, %"struct.gmx::EnumerationArray", [3 x [3 x float]], [3 x [3 x float]], [3 x [3 x float]], [3 x [3 x float]], [3 x [3 x float]], [3 x [3 x float]], %"class.std::vector.172", %"class.std::vector.172", %"class.std::vector.172", %"class.std::vector.172", %"class.std::vector.172", double, float, float, %"class.gmx::PaddedVector", %"class.gmx::PaddedVector", %"class.gmx::PaddedVector", %class.ekinstate_t, %class.history_t, ptr, %"class.std::shared_ptr", i32, i32, %"class.std::vector", %"class.std::vector.172" }
%"struct.gmx::EnumerationArray" = type { [7 x float] }
%"class.gmx::PaddedVector" = type { %"class.std::vector.73", %"class.__gnu_cxx::__normal_iterator" }
%"class.__gnu_cxx::__normal_iterator" = type { ptr }
%class.ekinstate_t = type <{ i8, [3 x i8], i32, ptr, ptr, ptr, [3 x [3 x float]], [4 x i8], %"class.std::vector.172", %"class.std::vector.172", %"class.std::vector.172", float, float, i8, [7 x i8] }>
%class.history_t = type { float, %"class.std::vector.80", float, %"class.std::vector.80" }
%"class.std::shared_ptr" = type { %"class.std::__shared_ptr" }
%"class.std::__shared_ptr" = type { ptr, %"class.std::__shared_count" }
%"class.std::__shared_count" = type { ptr }
%"class.std::vector.172" = type { %"struct.std::_Vector_base.173" }
%"struct.std::_Vector_base.173" = type { %"struct.std::_Vector_base<double, std::allocator<double>>::_Vector_impl" }
%"struct.std::_Vector_base<double, std::allocator<double>>::_Vector_impl" = type { %"struct.std::_Vector_base<double, std::allocator<double>>::_Vector_impl_data" }
%"struct.std::_Vector_base<double, std::allocator<double>>::_Vector_impl_data" = type { ptr, ptr, ptr }
%struct.df_history_t = type { i32, i8, ptr, ptr, ptr, float, ptr, ptr, ptr, ptr, ptr, ptr, ptr, ptr, ptr, ptr }

; Function Attrs: mustprogress nounwind uwtable
define linkonce_odr noundef ptr @_ZNSt14__array_traitsIiLm5EE6_S_ptrERA5_Ki(ptr noundef nonnull align 4 dereferenceable(20) %0) #2 comdat align 2 {
  %2 = alloca ptr, align 8
  store ptr %0, ptr %2, align 8, !tbaa !119
  %3 = load ptr, ptr %2, align 8, !tbaa !119
  %4 = getelementptr inbounds [5 x i32], ptr %3, i64 0, i64 0
  ret ptr %4
}

; Function Attrs: mustprogress nounwind uwtable
define linkonce_odr noundef nonnull align 4 dereferenceable(4) ptr @_ZNSt14__array_traitsIiLm5EE6_S_refERA5_Kim(ptr noundef nonnull align 4 dereferenceable(20) %0, i64 noundef %1) #2 comdat align 2 {
  %3 = alloca ptr, align 8
  %4 = alloca i64, align 8
  store ptr %0, ptr %3, align 8, !tbaa !119
  store i64 %1, ptr %4, align 8, !tbaa !122
  %5 = load ptr, ptr %3, align 8, !tbaa !119
  %6 = load i64, ptr %4, align 8, !tbaa !122
  %7 = getelementptr inbounds nuw [5 x i32], ptr %5, i64 0, i64 %6
  ret ptr %7
}

; Function Attrs: mustprogress nounwind willreturn memory(none) uwtable
define linkonce_odr noundef ptr @_ZNSt5arrayIiLm5EE4dataEv(ptr noundef nonnull align 4 dereferenceable(20) %0) #15 comdat align 2 {
  %2 = alloca ptr, align 8
  store ptr %0, ptr %2, align 8, !tbaa !518
  %3 = load ptr, ptr %2, align 8
  %4 = getelementptr inbounds nuw %"struct.std::array.160", ptr %3, i32 0, i32 0
  %5 = call noundef ptr @_ZNSt14__array_traitsIiLm5EE6_S_ptrERA5_Ki(ptr noundef nonnull align 4 dereferenceable(20) %4) #19
  ret ptr %5
}

; Function Attrs: mustprogress nounwind willreturn memory(none) uwtable
define linkonce_odr noundef i64 @_ZNKSt5arrayIiLm5EE4sizeEv(ptr noundef nonnull align 4 dereferenceable(20) %0) #15 comdat align 2 {
  %2 = alloca ptr, align 8
  store ptr %0, ptr %2, align 8, !tbaa !518
  ret i64 5
}

; Function Attrs: mustprogress nounwind uwtable
define linkonce_odr noundef nonnull align 4 dereferenceable(4) ptr @_ZNSt5arrayIiLm5EEixEm(ptr noundef nonnull align 4 dereferenceable(20) %0, i64 noundef %1) #2 comdat align 2 {
  %3 = alloca ptr, align 8
  %4 = alloca i64, align 8
  store ptr %0, ptr %3, align 8, !tbaa !518
  store i64 %1, ptr %4, align 8, !tbaa !122
  %5 = load ptr, ptr %3, align 8
  %6 = getelementptr inbounds nuw %"struct.std::array.160", ptr %5, i32 0, i32 0
  %7 = load i64, ptr %4, align 8, !tbaa !122
  %8 = call noundef nonnull align 4 dereferenceable(4) ptr @_ZNSt14__array_traitsIiLm5EE6_S_refERA5_Kim(ptr noundef nonnull align 4 dereferenceable(20) %6, i64 noundef %7) #19
  ret ptr %8
}

; Function Attrs: mustprogress nounwind uwtable
define linkonce_odr noundef i32 @_ZNK7t_state5flagsEv(ptr noundef nonnull align 8 dereferenceable(832) %0) #2 comdat align 2 {
  %2 = alloca ptr, align 8
  store ptr %0, ptr %2, align 8, !tbaa !194
  %3 = load ptr, ptr %2, align 8
  %4 = getelementptr inbounds nuw %class.t_state, ptr %3, i32 0, i32 1
  %5 = load i32, ptr %4, align 4, !tbaa !1866
  ret i32 %5
}

; Function Attrs: inlinehint mustprogress nounwind uwtable
define internal noundef zeroext i1 @_ZL6DDMAINRK12gmx_domdec_t(ptr noundef nonnull align 8 dereferenceable(1072) %0) #3 {
  %2 = alloca ptr, align 8
  store ptr %0, ptr %2, align 8, !tbaa !4
  %3 = load ptr, ptr %2, align 8, !tbaa !4
  %4 = getelementptr inbounds nuw %struct.gmx_domdec_t, ptr %3, i32 0, i32 3
  %5 = load i32, ptr %4, align 4, !tbaa !522
  %6 = load ptr, ptr %2, align 8, !tbaa !4
  %7 = getelementptr inbounds nuw %struct.gmx_domdec_t, ptr %6, i32 0, i32 5
  %8 = load i32, ptr %7, align 4, !tbaa !624
  %9 = icmp eq i32 %5, %8
  ret i1 %9
}

; Function Attrs: mustprogress uwtable
define void @_Z19dd_init_local_stateRK12gmx_domdec_tPK7t_statePS2_(ptr noundef nonnull align 8 dereferenceable(1072) %0, ptr noundef %1, ptr noundef %2) #0 {
  %4 = alloca ptr, align 8
  %5 = alloca ptr, align 8
  %6 = alloca ptr, align 8
  %7 = alloca %"struct.std::array.160", align 4
  store ptr %0, ptr %4, align 8, !tbaa !4
  store ptr %1, ptr %5, align 8, !tbaa !194
  store ptr %2, ptr %6, align 8, !tbaa !194
  call void @llvm.lifetime.start.p0(i64 20, ptr %7) #19
  %8 = load ptr, ptr %4, align 8, !tbaa !4
  %9 = call noundef zeroext i1 @_ZL6DDMAINRK12gmx_domdec_t(ptr noundef nonnull align 8 dereferenceable(1072) %8)
  br i1 %9, label %10, label %40

10:                                               ; preds = %3
  %11 = load ptr, ptr %5, align 8, !tbaa !194
  %12 = call noundef i32 @_ZNK7t_state5flagsEv(ptr noundef nonnull align 8 dereferenceable(832) %11)
  %13 = call noundef nonnull align 4 dereferenceable(4) ptr @_ZNSt5arrayIiLm5EEixEm(ptr noundef nonnull align 4 dereferenceable(20) %7, i64 noundef 0) #19
  store i32 %12, ptr %13, align 4, !tbaa !11
  %14 = load ptr, ptr %5, align 8, !tbaa !194
  %15 = getelementptr inbounds nuw %class.t_state, ptr %14, i32 0, i32 2
  %16 = load i32, ptr %15, align 8, !tbaa !1860
  %17 = call noundef nonnull align 4 dereferenceable(4) ptr @_ZNSt5arrayIiLm5EEixEm(ptr noundef nonnull align 4 dereferenceable(20) %7, i64 noundef 1) #19
  store i32 %16, ptr %17, align 4, !tbaa !11
  %18 = load ptr, ptr %5, align 8, !tbaa !194
  %19 = getelementptr inbounds nuw %class.t_state, ptr %18, i32 0, i32 3
  %20 = load i32, ptr %19, align 4, !tbaa !1861
  %21 = call noundef nonnull align 4 dereferenceable(4) ptr @_ZNSt5arrayIiLm5EEixEm(ptr noundef nonnull align 4 dereferenceable(20) %7, i64 noundef 2) #19
  store i32 %20, ptr %21, align 4, !tbaa !11
  %22 = load ptr, ptr %5, align 8, !tbaa !194
  %23 = getelementptr inbounds nuw %class.t_state, ptr %22, i32 0, i32 4
  %24 = load i32, ptr %23, align 8, !tbaa !1862
  %25 = call noundef nonnull align 4 dereferenceable(4) ptr @_ZNSt5arrayIiLm5EEixEm(ptr noundef nonnull align 4 dereferenceable(20) %7, i64 noundef 3) #19
  store i32 %24, ptr %25, align 4, !tbaa !11
  %26 = load ptr, ptr %5, align 8, !tbaa !194
  %27 = getelementptr inbounds nuw %class.t_state, ptr %26, i32 0, i32 26
  %28 = load ptr, ptr %27, align 8, !tbaa !1863
  %29 = icmp ne ptr %28, null
  br i1 %29, label %30, label %36

30:                                               ; preds = %10
  %31 = load ptr, ptr %5, align 8, !tbaa !194
  %32 = getelementptr inbounds nuw %class.t_state, ptr %31, i32 0, i32 26
  %33 = load ptr, ptr %32, align 8, !tbaa !1863
  %34 = getelementptr inbounds nuw %struct.df_history_t, ptr %33, i32 0, i32 0
  %35 = load i32, ptr %34, align 8, !tbaa !1864
  br label %37

36:                                               ; preds = %10
  br label %37

37:                                               ; preds = %36, %30
  %38 = phi i32 [ %35, %30 ], [ 0, %36 ]
  %39 = call noundef nonnull align 4 dereferenceable(4) ptr @_ZNSt5arrayIiLm5EEixEm(ptr noundef nonnull align 4 dereferenceable(20) %7, i64 noundef 4) #19
  store i32 %38, ptr %39, align 4, !tbaa !11
  br label %40

40:                                               ; preds = %37, %3
  %41 = load ptr, ptr %4, align 8, !tbaa !4
  %42 = call noundef i64 @_ZNKSt5arrayIiLm5EE4sizeEv(ptr noundef nonnull align 4 dereferenceable(20) %7) #24
  %43 = mul i64 %42, 4
  %44 = trunc i64 %43 to i32
  %45 = call noundef ptr @_ZNSt5arrayIiLm5EE4dataEv(ptr noundef nonnull align 4 dereferenceable(20) %7) #24
  call void @_Z8dd_bcastPK12gmx_domdec_tiPv(ptr noundef %41, i32 noundef %44, ptr noundef %45)
  %46 = load ptr, ptr %6, align 8, !tbaa !194
  %47 = call noundef nonnull align 4 dereferenceable(4) ptr @_ZNSt5arrayIiLm5EEixEm(ptr noundef nonnull align 4 dereferenceable(20) %7, i64 noundef 1) #19
  %48 = load i32, ptr %47, align 4, !tbaa !11
  %49 = call noundef nonnull align 4 dereferenceable(4) ptr @_ZNSt5arrayIiLm5EEixEm(ptr noundef nonnull align 4 dereferenceable(20) %7, i64 noundef 2) #19
  %50 = load i32, ptr %49, align 4, !tbaa !11
  %51 = call noundef nonnull align 4 dereferenceable(4) ptr @_ZNSt5arrayIiLm5EEixEm(ptr noundef nonnull align 4 dereferenceable(20) %7, i64 noundef 3) #19
  %52 = load i32, ptr %51, align 4, !tbaa !11
  call void @_Z14init_gtc_stateP7t_stateiii(ptr noundef %46, i32 noundef %48, i32 noundef %50, i32 noundef %52)
  %53 = load ptr, ptr %6, align 8, !tbaa !194
  %54 = call noundef nonnull align 4 dereferenceable(4) ptr @_ZNSt5arrayIiLm5EEixEm(ptr noundef nonnull align 4 dereferenceable(20) %7, i64 noundef 4) #19
  %55 = load i32, ptr %54, align 4, !tbaa !11
  call void @_Z17init_dfhist_stateP7t_statei(ptr noundef %53, i32 noundef %55)
  %56 = load ptr, ptr %6, align 8, !tbaa !194
  %57 = call noundef nonnull align 4 dereferenceable(4) ptr @_ZNSt5arrayIiLm5EEixEm(ptr noundef nonnull align 4 dereferenceable(20) %7, i64 noundef 0) #19
  %58 = load i32, ptr %57, align 4, !tbaa !11
  call void @_ZN7t_state8setFlagsEi(ptr noundef nonnull align 8 dereferenceable(832) %56, i32 noundef %58)
  call void @llvm.lifetime.end.p0(i64 20, ptr %7) #19
  ret void
}