; Function Attrs: mustprogress uwtable
define void @_Z19dd_init_local_stateRK12gmx_domdec_tPK7t_statePS2_(ptr noundef nonnull align 8 dereferenceable(1072) %0, ptr noundef readonly captures(none) %1, ptr noundef %2) local_unnamed_addr #0 {
  %4 = alloca %"struct.std::array.160", align 4
  call void @llvm.lifetime.start.p0(i64 20, ptr nonnull %4) #27
  %5 = getelementptr inbounds nuw i8, ptr %0, i64 28
  %.val = load i32, ptr %5, align 4, !tbaa !346
  %6 = getelementptr inbounds nuw i8, ptr %0, i64 44
  %.val11 = load i32, ptr %6, align 4, !tbaa !772
  %7 = icmp eq i32 %.val, %.val11
  br i1 %7, label %8, label %27

8:                                                ; preds = %3
  %9 = getelementptr inbounds nuw i8, ptr %1, i64 4
  %10 = load i32, ptr %9, align 4, !tbaa !893
  store i32 %10, ptr %4, align 4, !tbaa !4
  %11 = getelementptr inbounds nuw i8, ptr %1, i64 8
  %12 = load i32, ptr %11, align 8, !tbaa !894
  %13 = getelementptr inbounds nuw i8, ptr %4, i64 4
  store i32 %12, ptr %13, align 4, !tbaa !4
  %14 = getelementptr inbounds nuw i8, ptr %1, i64 12
  %15 = load i32, ptr %14, align 4, !tbaa !895
  %16 = getelementptr inbounds nuw i8, ptr %4, i64 8
  store i32 %15, ptr %16, align 4, !tbaa !4
  %17 = getelementptr inbounds nuw i8, ptr %1, i64 16
  %18 = load i32, ptr %17, align 8, !tbaa !896
  %19 = getelementptr inbounds nuw i8, ptr %4, i64 12
  store i32 %18, ptr %19, align 4, !tbaa !4
  %20 = getelementptr inbounds nuw i8, ptr %1, i64 752
  %21 = load ptr, ptr %20, align 8, !tbaa !897
  %.not = icmp eq ptr %21, null
  br i1 %.not, label %24, label %22

22:                                               ; preds = %8
  %23 = load i32, ptr %21, align 8, !tbaa !898
  br label %24

24:                                               ; preds = %8, %22
  %25 = phi i32 [ %23, %22 ], [ 0, %8 ]
  %26 = getelementptr inbounds nuw i8, ptr %4, i64 16
  store i32 %25, ptr %26, align 4, !tbaa !4
  br label %27

27:                                               ; preds = %24, %3
  call void @_Z8dd_bcastPK12gmx_domdec_tiPv(ptr noundef nonnull %0, i32 noundef 20, ptr noundef nonnull %4)
  %28 = getelementptr inbounds nuw i8, ptr %4, i64 4
  %29 = load i32, ptr %28, align 4, !tbaa !4
  %30 = getelementptr inbounds nuw i8, ptr %4, i64 8
  %31 = load i32, ptr %30, align 4, !tbaa !4
  %32 = getelementptr inbounds nuw i8, ptr %4, i64 12
  %33 = load i32, ptr %32, align 4, !tbaa !4
  call void @_Z14init_gtc_stateP7t_stateiii(ptr noundef %2, i32 noundef %29, i32 noundef %31, i32 noundef %33)
  %34 = getelementptr inbounds nuw i8, ptr %4, i64 16
  %35 = load i32, ptr %34, align 4, !tbaa !4
  call void @_Z17init_dfhist_stateP7t_statei(ptr noundef %2, i32 noundef %35)
  %36 = load i32, ptr %4, align 4, !tbaa !4
  call void @_ZN7t_state8setFlagsEi(ptr noundef nonnull align 8 dereferenceable(832) %2, i32 noundef %36)
  call void @llvm.lifetime.end.p0(i64 20, ptr nonnull %4) #27
  ret void
}